; Function Attrs: mustprogress nofree norecurse nosync nounwind willreturn memory(read, inaccessiblemem: none) uwtable
define noundef i32 @_ZNK3vcg3tri2io9BreHeader8DataTypeEv(ptr nocapture noundef nonnull readonly align 8 dereferenceable(16) %0) local_unnamed_addr #14 align 2 {
  %2 = getelementptr inbounds i8, ptr %0, i64 8
  %3 = load ptr, ptr %2, align 8
  %4 = getelementptr inbounds i8, ptr %3, i64 16
  %5 = load i64, ptr %4, align 8
  %6 = getelementptr inbounds i8, ptr %3, i64 %5
  %7 = getelementptr inbounds i8, ptr %6, i64 2
  %8 = load i16, ptr %7, align 2
  %.not = icmp eq i16 %8, 513
  br i1 %.not, label %9, label %14

9:                                                ; preds = %1
  %10 = getelementptr inbounds i8, ptr %6, i64 620
  %11 = load i32, ptr %10, align 4
  %12 = icmp ne i32 %11, 0
  %13 = zext i1 %12 to i32
  br label %14

14:                                               ; preds = %1, %9
  %.0 = phi i32 [ %13, %9 ], [ -1, %1 ]
  ret i32 %.0
}